; Function Attrs: nounwind uwtable
define range(i32 -34, 1) i32 @mriStep_Reset(ptr noundef %0, double noundef %1, ptr noundef %2) #0 {
  %4 = getelementptr inbounds nuw i8, ptr %0, i64 136
  %5 = load ptr, ptr %4, align 8, !tbaa !71
  %6 = icmp eq ptr %5, null
  br i1 %6, label %mriStep_AccessStepMem.exit, label %7

mriStep_AccessStepMem.exit:                       ; preds = %3
  tail call void (ptr, i32, i32, ptr, ptr, ptr, ...) @arkProcessError(ptr noundef nonnull %0, i32 noundef -21, i32 noundef 3097, ptr noundef nonnull @__func__.mriStep_Reset, ptr noundef nonnull @.str, ptr noundef nonnull @.str.75) #14
  br label %mriStepInnerStepper_Reset.exit.thread15

7:                                                ; preds = %3
  %8 = getelementptr inbounds nuw i8, ptr %5, i64 360
  %9 = load ptr, ptr %8, align 8, !tbaa !102
  %10 = icmp eq ptr %9, null
  br i1 %10, label %mriStepInnerStepper_Reset.exit.thread, label %11

11:                                               ; preds = %7
  %12 = getelementptr inbounds nuw i8, ptr %9, i64 8
  %13 = load ptr, ptr %12, align 8, !tbaa !103
  %14 = icmp eq ptr %13, null
  br i1 %14, label %mriStepInnerStepper_Reset.exit.thread, label %15

15:                                               ; preds = %11
  %16 = getelementptr inbounds nuw i8, ptr %13, i64 16
  %17 = load ptr, ptr %16, align 8, !tbaa !175
  %.not.i = icmp eq ptr %17, null
  br i1 %.not.i, label %mriStepInnerStepper_Reset.exit.thread15, label %mriStepInnerStepper_Reset.exit

mriStepInnerStepper_Reset.exit:                   ; preds = %15
  %18 = tail call i32 %17(ptr noundef nonnull %9, double noundef %1, ptr noundef %2) #14
  %19 = getelementptr inbounds nuw i8, ptr %9, i64 40
  store i32 %18, ptr %19, align 8, !tbaa !166
  %.not8 = icmp eq i32 %18, 0
  br i1 %.not8, label %mriStepInnerStepper_Reset.exit.thread15, label %mriStepInnerStepper_Reset.exit.thread

mriStepInnerStepper_Reset.exit.thread:            ; preds = %11, %7, %mriStepInnerStepper_Reset.exit
  tail call void (ptr, i32, i32, ptr, ptr, ptr, ...) @arkProcessError(ptr noundef nonnull %0, i32 noundef -34, i32 noundef 548, ptr noundef nonnull @__func__.mriStep_Reset, ptr noundef nonnull @.str, ptr noundef nonnull @.str.17) #14
  br label %mriStepInnerStepper_Reset.exit.thread15

mriStepInnerStepper_Reset.exit.thread15:          ; preds = %15, %mriStep_AccessStepMem.exit, %mriStepInnerStepper_Reset.exit, %mriStepInnerStepper_Reset.exit.thread
  %.0 = phi i32 [ -34, %mriStepInnerStepper_Reset.exit.thread ], [ -21, %mriStep_AccessStepMem.exit ], [ 0, %mriStepInnerStepper_Reset.exit ], [ 0, %15 ]
  ret i32 %.0
}